target datalayout = "e-m:e-p270:32:32-p271:32:32-p272:64:64-i64:64-i128:128-f80:128-n8:16:32:64-S128"
target triple = "x86_64-pc-linux-gnu"

%struct.iseq_compile_data = type { i64, i64, ptr, ptr, ptr, ptr, ptr, %struct.anon.13, %struct.anon.14, i8, i8, i32, i32, i32, i32, i32, i32, i32, ptr, ptr, ptr, ptr, i8 }
%struct.anon.13 = type { ptr, ptr }
%struct.anon.14 = type { ptr, ptr }
%struct.rb_iseq_struct = type { i64, i64, ptr, %union.anon.15 }
%union.anon.15 = type { %struct.anon.16 }
%struct.anon.16 = type { i64, i32 }
%struct.rb_iseq_constant_body = type { i32, i32, ptr, %struct.anon.18, %struct.rb_iseq_location_struct, %struct.iseq_insn_info, ptr, ptr, ptr, ptr, ptr, ptr, %struct.anon.19, i32, i32, i32, i32, i32, i32, i32, i32, i8, %union.anon.20, ptr, ptr, ptr, i64, ptr, i64, ptr, i64 }
%struct.anon.18 = type { %struct.anon, i32, i32, i32, i32, i32, i32, i32, ptr, ptr }
%struct.anon = type { i16, [2 x i8] }
%struct.rb_iseq_location_struct = type { i64, i64, i64, i32, i32, %struct.rb_code_location_struct }
%struct.rb_code_location_struct = type { %struct.rb_code_position_struct, %struct.rb_code_position_struct }
%struct.rb_code_position_struct = type { i32, i32 }
%struct.iseq_insn_info = type { ptr, ptr, i32, ptr }
%struct.anon.19 = type { i64, i64, i64, i64, ptr }
%union.anon.20 = type { ptr }

; Function Attrs: inlinehint nounwind sspstrong uwtable
define internal ptr @ISEQ_COMPILE_DATA(ptr noundef %0) #3 {
  %2 = alloca ptr, align 8
  %3 = alloca ptr, align 8
  store ptr %0, ptr %3, align 8, !tbaa !11
  %4 = load ptr, ptr %3, align 8, !tbaa !11
  %5 = getelementptr inbounds nuw %struct.rb_iseq_struct, ptr %4, i32 0, i32 0
  %6 = load i64, ptr %5, align 8, !tbaa !46
  %7 = and i64 %6, 262144
  %8 = icmp ne i64 %7, 0
  br i1 %8, label %9, label %13

9:                                                ; preds = %1
  %10 = load ptr, ptr %3, align 8, !tbaa !11
  %11 = getelementptr inbounds nuw %struct.rb_iseq_struct, ptr %10, i32 0, i32 3
  %12 = load ptr, ptr %11, align 8, !tbaa !49
  store ptr %12, ptr %2, align 8
  br label %14

13:                                               ; preds = %1
  store ptr null, ptr %2, align 8
  br label %14

14:                                               ; preds = %13, %9
  %15 = load ptr, ptr %2, align 8
  ret ptr %15
}

; Function Attrs: nounwind sspstrong uwtable
define internal ptr @new_child_iseq(ptr noundef %0, ptr noundef %1, i64 noundef %2, ptr noundef %3, i32 noundef %4, i32 noundef %5) #0 {
  %7 = alloca ptr, align 8
  %8 = alloca ptr, align 8
  %9 = alloca i64, align 8
  %10 = alloca ptr, align 8
  %11 = alloca i32, align 4
  %12 = alloca i32, align 4
  %13 = alloca ptr, align 8
  %14 = alloca i64, align 8
  %15 = alloca i32, align 4
  store ptr %0, ptr %7, align 8, !tbaa !11
  store ptr %1, ptr %8, align 8, !tbaa !73
  store i64 %2, ptr %9, align 8, !tbaa !7
  store ptr %3, ptr %10, align 8, !tbaa !11
  store i32 %4, ptr %11, align 4, !tbaa !41
  store i32 %5, ptr %12, align 4, !tbaa !41
  call void @llvm.lifetime.start.p0(i64 8, ptr %13) #31
  call void @llvm.lifetime.start.p0(i64 8, ptr %14) #31
  %16 = load ptr, ptr %8, align 8, !tbaa !73
  %17 = call i64 @rb_ruby_ast_new(ptr noundef %16)
  store i64 %17, ptr %14, align 8, !tbaa !7
  call void @llvm.lifetime.start.p0(i64 4, ptr %15) #31
  %18 = load ptr, ptr %7, align 8, !tbaa !11
  %19 = call ptr @ISEQ_COMPILE_DATA(ptr noundef %18)
  %20 = getelementptr inbounds nuw %struct.iseq_compile_data, ptr %19, i32 0, i32 15
  %21 = load i32, ptr %20, align 4, !tbaa !883
  store i32 %21, ptr %15, align 4, !tbaa !41
  %22 = load i64, ptr %14, align 8, !tbaa !7
  %23 = load i64, ptr %9, align 8, !tbaa !7
  %24 = load ptr, ptr %7, align 8, !tbaa !11
  %25 = call i64 @rb_iseq_path(ptr noundef %24)
  %26 = load ptr, ptr %7, align 8, !tbaa !11
  %27 = call i64 @rb_iseq_realpath(ptr noundef %26)
  %28 = load i32, ptr %12, align 4, !tbaa !41
  %29 = load ptr, ptr %10, align 8, !tbaa !11
  %30 = load i32, ptr %15, align 4, !tbaa !41
  %31 = icmp ne i32 %30, 0
  br i1 %31, label %32, label %35

32:                                               ; preds = %6
  %33 = load i32, ptr %15, align 4, !tbaa !41
  %34 = add i32 %33, 1
  br label %36

35:                                               ; preds = %6
  br label %36

36:                                               ; preds = %35, %32
  %37 = phi i32 [ %34, %32 ], [ 0, %35 ]
  %38 = load i32, ptr %11, align 4, !tbaa !41
  %39 = load ptr, ptr %7, align 8, !tbaa !11
  %40 = call ptr @ISEQ_COMPILE_DATA(ptr noundef %39)
  %41 = getelementptr inbounds nuw %struct.iseq_compile_data, ptr %40, i32 0, i32 18
  %42 = load ptr, ptr %41, align 8, !tbaa !51
  %43 = load ptr, ptr %7, align 8, !tbaa !11
  %44 = getelementptr inbounds nuw %struct.rb_iseq_struct, ptr %43, i32 0, i32 2
  %45 = load ptr, ptr %44, align 8, !tbaa !52
  %46 = getelementptr inbounds nuw %struct.rb_iseq_constant_body, ptr %45, i32 0, i32 12
  %47 = getelementptr inbounds nuw %struct.anon.19, ptr %46, i32 0, i32 1
  %48 = load i64, ptr %47, align 8, !tbaa !266
  %49 = call ptr @rb_iseq_new_with_opt(i64 noundef %22, i64 noundef %23, i64 noundef %25, i64 noundef %27, i32 noundef %28, ptr noundef %29, i32 noundef %37, i32 noundef %38, ptr noundef %42, i64 noundef %48)
  store ptr %49, ptr %13, align 8, !tbaa !11
  %50 = load ptr, ptr %13, align 8, !tbaa !11
  call void @llvm.lifetime.end.p0(i64 4, ptr %15) #31
  call void @llvm.lifetime.end.p0(i64 8, ptr %14) #31
  call void @llvm.lifetime.end.p0(i64 8, ptr %13) #31
  ret ptr %50
}