; Function Attrs: nounwind sspstrong uwtable
define internal fastcc ptr @new_child_iseq(ptr noundef %0, ptr noundef %1, i64 noundef %2, ptr noundef %3, i32 noundef range(i32 1, 9) %4, i32 noundef %5) unnamed_addr #1 {
ISEQ_COMPILE_DATA.exit:
  %6 = tail call i64 @rb_ruby_ast_new(ptr noundef %1) #38
  %7 = load i64, ptr %0, align 8, !tbaa !19
  %8 = and i64 %7, 262144
  %.not.i = icmp ne i64 %8, 0
  tail call void @llvm.assume(i1 %.not.i)
  %9 = getelementptr inbounds nuw i8, ptr %0, i64 24
  %10 = load ptr, ptr %9, align 8, !tbaa !22
  %11 = getelementptr inbounds nuw i8, ptr %10, i64 108
  %12 = load i32, ptr %11, align 4, !tbaa !754
  %13 = tail call i64 @rb_iseq_path(ptr noundef nonnull %0) #38
  %14 = tail call i64 @rb_iseq_realpath(ptr noundef nonnull %0) #38
  %.not = icmp eq i32 %12, 0
  %15 = add i32 %12, 1
  %16 = select i1 %.not, i32 0, i32 %15
  %17 = load i64, ptr %0, align 8, !tbaa !19
  %18 = and i64 %17, 262144
  %.not.i13 = icmp ne i64 %18, 0
  tail call void @llvm.assume(i1 %.not.i13)
  %19 = load ptr, ptr %9, align 8, !tbaa !22
  %20 = getelementptr inbounds nuw i8, ptr %19, i64 120
  %21 = load ptr, ptr %20, align 8, !tbaa !44
  %22 = getelementptr inbounds nuw i8, ptr %0, i64 16
  %23 = load ptr, ptr %22, align 8, !tbaa !45
  %24 = getelementptr inbounds nuw i8, ptr %23, i64 200
  %25 = load i64, ptr %24, align 8, !tbaa !351
  %26 = tail call ptr @rb_iseq_new_with_opt(i64 noundef %6, i64 noundef %2, i64 noundef %13, i64 noundef %14, i32 noundef %5, ptr noundef %3, i32 noundef %16, i32 noundef %4, ptr noundef %21, i64 noundef %25) #38
  ret ptr %26
}